(dp1
S'output'
p2
S'<type \'exceptions.SyntaxError\'> Field: invalid table name: , use rname for "funny" names'
p3
sS'layer'
p4
S'/home/praveeny/web2py/applications/courier_portal/models/db1.py'
p5
sS'code'
p6
S"# -*- coding: utf-8 -*-\nimport gluon\ndb.define_table('',Field)"
p7
sS'snapshot'
p8
(dp9
sS'traceback'
p10
S'Traceback (most recent call last):\n  File "/home/praveeny/web2py/gluon/restricted.py", line 227, in restricted\n    exec ccode in environment\n  File "/home/praveeny/web2py/applications/courier_portal/models/db1.py", line 3, in <module>\n    db.define_table(\'\',Field)\n  File "/home/praveeny/web2py/gluon/packages/dal/pydal/base.py", line 819, in define_table\n    table = self.lazy_define_table(tablename,*fields,**args)\n  File "/home/praveeny/web2py/gluon/packages/dal/pydal/base.py", line 836, in lazy_define_table\n    table = table_class(self, tablename, *fields, **args)\n  File "/home/praveeny/web2py/gluon/packages/dal/pydal/objects.py", line 226, in __init__\n    \'use rname for "funny" names\' % tablename)\nSyntaxError: Field: invalid table name: , use rname for "funny" names\n'
p11
s.